; ModuleID = '32/614.c'
source_filename = "32/614.c"
target datalayout = "e-m:e-p270:32:32-p271:32:32-p272:64:64-i64:64-f80:128-n8:16:32:64-S128"
target triple = "x86_64-pc-linux-gnu"

@.str = private unnamed_addr constant [3 x i8] c"%d\00", align 1
@.str.1 = private unnamed_addr constant [5 x i8] c"%s%s\00", align 1
@.str.2 = private unnamed_addr constant [3 x i8] c"%c\00", align 1
@.str.3 = private unnamed_addr constant [2 x i8] c"\0A\00", align 1

; Function Attrs: noinline nounwind uwtable
define dso_local void @main() #0 {
  %1 = alloca i32, align 4
  %2 = alloca i32, align 4
  %3 = alloca i32, align 4
  %4 = alloca [20 x i32], align 16
  %5 = alloca [20 x i32], align 16
  %6 = alloca [20 x [100 x i8]], align 16
  %7 = alloca [20 x [100 x i8]], align 16
  %8 = alloca [20 x [100 x i8]], align 16
  %9 = call i32 (i8*, ...) @__isoc99_scanf(i8* getelementptr inbounds ([3 x i8], [3 x i8]* @.str, i64 0, i64 0), i32* %1)
  store i32 0, i32* %2, align 4
  br label %10

10:                                               ; preds = %42, %0
  %11 = load i32, i32* %2, align 4
  %12 = load i32, i32* %1, align 4
  %13 = icmp slt i32 %11, %12
  br i1 %13, label %14, label %45

14:                                               ; preds = %10
  %15 = load i32, i32* %2, align 4
  %16 = sext i32 %15 to i64
  %17 = getelementptr inbounds [20 x [100 x i8]], [20 x [100 x i8]]* %6, i64 0, i64 %16
  %18 = getelementptr inbounds [100 x i8], [100 x i8]* %17, i64 0, i64 0
  %19 = load i32, i32* %2, align 4
  %20 = sext i32 %19 to i64
  %21 = getelementptr inbounds [20 x [100 x i8]], [20 x [100 x i8]]* %7, i64 0, i64 %20
  %22 = getelementptr inbounds [100 x i8], [100 x i8]* %21, i64 0, i64 0
  %23 = call i32 (i8*, ...) @__isoc99_scanf(i8* getelementptr inbounds ([5 x i8], [5 x i8]* @.str.1, i64 0, i64 0), i8* %18, i8* %22)
  %24 = load i32, i32* %2, align 4
  %25 = sext i32 %24 to i64
  %26 = getelementptr inbounds [20 x [100 x i8]], [20 x [100 x i8]]* %6, i64 0, i64 %25
  %27 = getelementptr inbounds [100 x i8], [100 x i8]* %26, i64 0, i64 0
  %28 = call i64 @strlen(i8* %27) #3
  %29 = trunc i64 %28 to i32
  %30 = load i32, i32* %2, align 4
  %31 = sext i32 %30 to i64
  %32 = getelementptr inbounds [20 x i32], [20 x i32]* %4, i64 0, i64 %31
  store i32 %29, i32* %32, align 4
  %33 = load i32, i32* %2, align 4
  %34 = sext i32 %33 to i64
  %35 = getelementptr inbounds [20 x [100 x i8]], [20 x [100 x i8]]* %7, i64 0, i64 %34
  %36 = getelementptr inbounds [100 x i8], [100 x i8]* %35, i64 0, i64 0
  %37 = call i64 @strlen(i8* %36) #3
  %38 = trunc i64 %37 to i32
  %39 = load i32, i32* %2, align 4
  %40 = sext i32 %39 to i64
  %41 = getelementptr inbounds [20 x i32], [20 x i32]* %5, i64 0, i64 %40
  store i32 %38, i32* %41, align 4
  br label %42

42:                                               ; preds = %14
  %43 = load i32, i32* %2, align 4
  %44 = add nsw i32 %43, 1
  store i32 %44, i32* %2, align 4
  br label %10

45:                                               ; preds = %10
  store i32 0, i32* %2, align 4
  br label %46

46:                                               ; preds = %202, %45
  %47 = load i32, i32* %2, align 4
  %48 = load i32, i32* %1, align 4
  %49 = icmp slt i32 %47, %48
  br i1 %49, label %50, label %205

50:                                               ; preds = %46
  %51 = load i32, i32* %2, align 4
  %52 = sext i32 %51 to i64
  %53 = getelementptr inbounds [20 x i32], [20 x i32]* %4, i64 0, i64 %52
  %54 = load i32, i32* %53, align 4
  %55 = sub nsw i32 %54, 1
  store i32 %55, i32* %3, align 4
  br label %56

56:                                               ; preds = %198, %50
  %57 = load i32, i32* %3, align 4
  %58 = icmp sge i32 %57, 0
  br i1 %58, label %59, label %201

59:                                               ; preds = %56
  %60 = load i32, i32* %2, align 4
  %61 = sext i32 %60 to i64
  %62 = getelementptr inbounds [20 x i32], [20 x i32]* %5, i64 0, i64 %61
  %63 = load i32, i32* %62, align 4
  %64 = icmp sgt i32 %63, 0
  br i1 %64, label %65, label %183

65:                                               ; preds = %59
  %66 = load i32, i32* %2, align 4
  %67 = sext i32 %66 to i64
  %68 = getelementptr inbounds [20 x [100 x i8]], [20 x [100 x i8]]* %6, i64 0, i64 %67
  %69 = load i32, i32* %3, align 4
  %70 = sext i32 %69 to i64
  %71 = getelementptr inbounds [100 x i8], [100 x i8]* %68, i64 0, i64 %70
  %72 = load i8, i8* %71, align 1
  %73 = sext i8 %72 to i32
  %74 = load i32, i32* %2, align 4
  %75 = sext i32 %74 to i64
  %76 = getelementptr inbounds [20 x [100 x i8]], [20 x [100 x i8]]* %7, i64 0, i64 %75
  %77 = load i32, i32* %2, align 4
  %78 = sext i32 %77 to i64
  %79 = getelementptr inbounds [20 x i32], [20 x i32]* %5, i64 0, i64 %78
  %80 = load i32, i32* %79, align 4
  %81 = sub nsw i32 %80, 1
  %82 = sext i32 %81 to i64
  %83 = getelementptr inbounds [100 x i8], [100 x i8]* %76, i64 0, i64 %82
  %84 = load i8, i8* %83, align 1
  %85 = sext i8 %84 to i32
  %86 = icmp sge i32 %73, %85
  br i1 %86, label %87, label %125

87:                                               ; preds = %65
  %88 = load i32, i32* %2, align 4
  %89 = sext i32 %88 to i64
  %90 = getelementptr inbounds [20 x [100 x i8]], [20 x [100 x i8]]* %6, i64 0, i64 %89
  %91 = load i32, i32* %3, align 4
  %92 = sext i32 %91 to i64
  %93 = getelementptr inbounds [100 x i8], [100 x i8]* %90, i64 0, i64 %92
  %94 = load i8, i8* %93, align 1
  %95 = sext i8 %94 to i32
  %96 = load i32, i32* %2, align 4
  %97 = sext i32 %96 to i64
  %98 = getelementptr inbounds [20 x [100 x i8]], [20 x [100 x i8]]* %7, i64 0, i64 %97
  %99 = load i32, i32* %2, align 4
  %100 = sext i32 %99 to i64
  %101 = getelementptr inbounds [20 x i32], [20 x i32]* %5, i64 0, i64 %100
  %102 = load i32, i32* %101, align 4
  %103 = sub nsw i32 %102, 1
  %104 = sext i32 %103 to i64
  %105 = getelementptr inbounds [100 x i8], [100 x i8]* %98, i64 0, i64 %104
  %106 = load i8, i8* %105, align 1
  %107 = sext i8 %106 to i32
  %108 = sub nsw i32 %95, %107
  %109 = add nsw i32 %108, 48
  %110 = trunc i32 %109 to i8
  %111 = load i32, i32* %2, align 4
  %112 = sext i32 %111 to i64
  %113 = getelementptr inbounds [20 x [100 x i8]], [20 x [100 x i8]]* %8, i64 0, i64 %112
  %114 = load i32, i32* %3, align 4
  %115 = sext i32 %114 to i64
  %116 = getelementptr inbounds [100 x i8], [100 x i8]* %113, i64 0, i64 %115
  store i8 %110, i8* %116, align 1
  %117 = load i32, i32* %2, align 4
  %118 = sext i32 %117 to i64
  %119 = getelementptr inbounds [20 x i32], [20 x i32]* %5, i64 0, i64 %118
  %120 = load i32, i32* %119, align 4
  %121 = sub nsw i32 %120, 1
  %122 = load i32, i32* %2, align 4
  %123 = sext i32 %122 to i64
  %124 = getelementptr inbounds [20 x i32], [20 x i32]* %5, i64 0, i64 %123
  store i32 %121, i32* %124, align 4
  br label %182

125:                                              ; preds = %65
  %126 = load i32, i32* %2, align 4
  %127 = sext i32 %126 to i64
  %128 = getelementptr inbounds [20 x [100 x i8]], [20 x [100 x i8]]* %6, i64 0, i64 %127
  %129 = load i32, i32* %3, align 4
  %130 = sext i32 %129 to i64
  %131 = getelementptr inbounds [100 x i8], [100 x i8]* %128, i64 0, i64 %130
  %132 = load i8, i8* %131, align 1
  %133 = sext i8 %132 to i32
  %134 = add nsw i32 10, %133
  %135 = load i32, i32* %2, align 4
  %136 = sext i32 %135 to i64
  %137 = getelementptr inbounds [20 x [100 x i8]], [20 x [100 x i8]]* %7, i64 0, i64 %136
  %138 = load i32, i32* %2, align 4
  %139 = sext i32 %138 to i64
  %140 = getelementptr inbounds [20 x i32], [20 x i32]* %5, i64 0, i64 %139
  %141 = load i32, i32* %140, align 4
  %142 = sub nsw i32 %141, 1
  %143 = sext i32 %142 to i64
  %144 = getelementptr inbounds [100 x i8], [100 x i8]* %137, i64 0, i64 %143
  %145 = load i8, i8* %144, align 1
  %146 = sext i8 %145 to i32
  %147 = sub nsw i32 %134, %146
  %148 = add nsw i32 %147, 48
  %149 = trunc i32 %148 to i8
  %150 = load i32, i32* %2, align 4
  %151 = sext i32 %150 to i64
  %152 = getelementptr inbounds [20 x [100 x i8]], [20 x [100 x i8]]* %8, i64 0, i64 %151
  %153 = load i32, i32* %3, align 4
  %154 = sext i32 %153 to i64
  %155 = getelementptr inbounds [100 x i8], [100 x i8]* %152, i64 0, i64 %154
  store i8 %149, i8* %155, align 1
  %156 = load i32, i32* %2, align 4
  %157 = sext i32 %156 to i64
  %158 = getelementptr inbounds [20 x [100 x i8]], [20 x [100 x i8]]* %6, i64 0, i64 %157
  %159 = load i32, i32* %3, align 4
  %160 = sub nsw i32 %159, 1
  %161 = sext i32 %160 to i64
  %162 = getelementptr inbounds [100 x i8], [100 x i8]* %158, i64 0, i64 %161
  %163 = load i8, i8* %162, align 1
  %164 = sext i8 %163 to i32
  %165 = sub nsw i32 %164, 1
  %166 = trunc i32 %165 to i8
  %167 = load i32, i32* %2, align 4
  %168 = sext i32 %167 to i64
  %169 = getelementptr inbounds [20 x [100 x i8]], [20 x [100 x i8]]* %6, i64 0, i64 %168
  %170 = load i32, i32* %3, align 4
  %171 = sub nsw i32 %170, 1
  %172 = sext i32 %171 to i64
  %173 = getelementptr inbounds [100 x i8], [100 x i8]* %169, i64 0, i64 %172
  store i8 %166, i8* %173, align 1
  %174 = load i32, i32* %2, align 4
  %175 = sext i32 %174 to i64
  %176 = getelementptr inbounds [20 x i32], [20 x i32]* %5, i64 0, i64 %175
  %177 = load i32, i32* %176, align 4
  %178 = sub nsw i32 %177, 1
  %179 = load i32, i32* %2, align 4
  %180 = sext i32 %179 to i64
  %181 = getelementptr inbounds [20 x i32], [20 x i32]* %5, i64 0, i64 %180
  store i32 %178, i32* %181, align 4
  br label %182

182:                                              ; preds = %125, %87
  br label %197

183:                                              ; preds = %59
  %184 = load i32, i32* %2, align 4
  %185 = sext i32 %184 to i64
  %186 = getelementptr inbounds [20 x [100 x i8]], [20 x [100 x i8]]* %6, i64 0, i64 %185
  %187 = load i32, i32* %3, align 4
  %188 = sext i32 %187 to i64
  %189 = getelementptr inbounds [100 x i8], [100 x i8]* %186, i64 0, i64 %188
  %190 = load i8, i8* %189, align 1
  %191 = load i32, i32* %2, align 4
  %192 = sext i32 %191 to i64
  %193 = getelementptr inbounds [20 x [100 x i8]], [20 x [100 x i8]]* %8, i64 0, i64 %192
  %194 = load i32, i32* %3, align 4
  %195 = sext i32 %194 to i64
  %196 = getelementptr inbounds [100 x i8], [100 x i8]* %193, i64 0, i64 %195
  store i8 %190, i8* %196, align 1
  br label %197

197:                                              ; preds = %183, %182
  br label %198

198:                                              ; preds = %197
  %199 = load i32, i32* %3, align 4
  %200 = add nsw i32 %199, -1
  store i32 %200, i32* %3, align 4
  br label %56

201:                                              ; preds = %56
  br label %202

202:                                              ; preds = %201
  %203 = load i32, i32* %2, align 4
  %204 = add nsw i32 %203, 1
  store i32 %204, i32* %2, align 4
  br label %46

205:                                              ; preds = %46
  store i32 0, i32* %2, align 4
  br label %206

206:                                              ; preds = %233, %205
  %207 = load i32, i32* %2, align 4
  %208 = load i32, i32* %1, align 4
  %209 = icmp slt i32 %207, %208
  br i1 %209, label %210, label %236

210:                                              ; preds = %206
  store i32 0, i32* %3, align 4
  br label %211

211:                                              ; preds = %228, %210
  %212 = load i32, i32* %3, align 4
  %213 = load i32, i32* %2, align 4
  %214 = sext i32 %213 to i64
  %215 = getelementptr inbounds [20 x i32], [20 x i32]* %4, i64 0, i64 %214
  %216 = load i32, i32* %215, align 4
  %217 = icmp slt i32 %212, %216
  br i1 %217, label %218, label %231

218:                                              ; preds = %211
  %219 = load i32, i32* %2, align 4
  %220 = sext i32 %219 to i64
  %221 = getelementptr inbounds [20 x [100 x i8]], [20 x [100 x i8]]* %8, i64 0, i64 %220
  %222 = load i32, i32* %3, align 4
  %223 = sext i32 %222 to i64
  %224 = getelementptr inbounds [100 x i8], [100 x i8]* %221, i64 0, i64 %223
  %225 = load i8, i8* %224, align 1
  %226 = sext i8 %225 to i32
  %227 = call i32 (i8*, ...) @printf(i8* getelementptr inbounds ([3 x i8], [3 x i8]* @.str.2, i64 0, i64 0), i32 %226)
  br label %228

228:                                              ; preds = %218
  %229 = load i32, i32* %3, align 4
  %230 = add nsw i32 %229, 1
  store i32 %230, i32* %3, align 4
  br label %211

231:                                              ; preds = %211
  %232 = call i32 (i8*, ...) @printf(i8* getelementptr inbounds ([2 x i8], [2 x i8]* @.str.3, i64 0, i64 0))
  br label %233

233:                                              ; preds = %231
  %234 = load i32, i32* %2, align 4
  %235 = add nsw i32 %234, 1
  store i32 %235, i32* %2, align 4
  br label %206

236:                                              ; preds = %206
  ret void
}

declare dso_local i32 @__isoc99_scanf(i8*, ...) #1

; Function Attrs: nounwind readonly
declare dso_local i64 @strlen(i8*) #2

declare dso_local i32 @printf(i8*, ...) #1


!llvm.module.flags = !{!0}
!llvm.ident = !{!1}

!0 = !{i32 1, !"wchar_size", i32 4}
!1 = !{!"clang version 10.0.0-4ubuntu1 "}
